target datalayout = "e-m:e-p270:32:32-p271:32:32-p272:64:64-i64:64-i128:128-f80:128-n8:16:32:64-S128"
target triple = "x86_64-pc-linux-gnu"

@_ZN4absl13time_internal4cctz6detail12_GLOBAL__N_17kDigitsE = internal constant [11 x i8] c"0123456789\00", align 1

; Function Attrs: mustprogress nounwind uwtable
define internal noundef ptr @_ZN4absl13time_internal4cctz6detail12_GLOBAL__N_18ParseIntIlEEPKcS6_iT_S7_PS7_(ptr noundef %0, i32 noundef %1, i64 noundef %2, i64 noundef %3, ptr noundef %4) #1 {
  %6 = alloca ptr, align 8
  %7 = alloca i32, align 4
  %8 = alloca i64, align 8
  %9 = alloca i64, align 8
  %10 = alloca ptr, align 8
  %11 = alloca i64, align 8
  %12 = alloca i8, align 1
  %13 = alloca i8, align 1
  %14 = alloca i64, align 8
  %15 = alloca ptr, align 8
  %16 = alloca ptr, align 8
  %17 = alloca i32, align 4
  %18 = alloca i32, align 4
  store ptr %0, ptr %6, align 8, !tbaa !15
  store i32 %1, ptr %7, align 4, !tbaa !34
  store i64 %2, ptr %8, align 8, !tbaa !21
  store i64 %3, ptr %9, align 8, !tbaa !21
  store ptr %4, ptr %10, align 8, !tbaa !87
  %19 = load ptr, ptr %6, align 8, !tbaa !15
  %20 = icmp ne ptr %19, null
  br i1 %20, label %21, label %136

21:                                               ; preds = %5
  call void @llvm.lifetime.start.p0(i64 8, ptr %11) #16
  store i64 -9223372036854775808, ptr %11, align 8, !tbaa !21
  call void @llvm.lifetime.start.p0(i64 1, ptr %12) #16
  store i8 0, ptr %12, align 1, !tbaa !56
  call void @llvm.lifetime.start.p0(i64 1, ptr %13) #16
  store i8 0, ptr %13, align 1, !tbaa !56
  call void @llvm.lifetime.start.p0(i64 8, ptr %14) #16
  store i64 0, ptr %14, align 8, !tbaa !21
  %22 = load ptr, ptr %6, align 8, !tbaa !15
  %23 = load i8, ptr %22, align 1, !tbaa !17
  %24 = sext i8 %23 to i32
  %25 = icmp eq i32 %24, 45
  br i1 %25, label %26, label %38

26:                                               ; preds = %21
  store i8 1, ptr %13, align 1, !tbaa !56
  %27 = load i32, ptr %7, align 4, !tbaa !34
  %28 = icmp sle i32 %27, 0
  br i1 %28, label %33, label %29

29:                                               ; preds = %26
  %30 = load i32, ptr %7, align 4, !tbaa !34
  %31 = add nsw i32 %30, -1
  store i32 %31, ptr %7, align 4, !tbaa !34
  %32 = icmp ne i32 %31, 0
  br i1 %32, label %33, label %36

33:                                               ; preds = %29, %26
  %34 = load ptr, ptr %6, align 8, !tbaa !15
  %35 = getelementptr inbounds nuw i8, ptr %34, i32 1
  store ptr %35, ptr %6, align 8, !tbaa !15
  br label %37

36:                                               ; preds = %29
  store ptr null, ptr %6, align 8, !tbaa !15
  br label %37

37:                                               ; preds = %36, %33
  br label %38

38:                                               ; preds = %37, %21
  call void @llvm.lifetime.start.p0(i64 8, ptr %15) #16
  %39 = load ptr, ptr %6, align 8, !tbaa !15
  store ptr %39, ptr %15, align 8, !tbaa !15
  %40 = load ptr, ptr %15, align 8, !tbaa !15
  %41 = icmp ne ptr %40, null
  br i1 %41, label %42, label %135

42:                                               ; preds = %38
  br label %43

43:                                               ; preds = %92, %42
  call void @llvm.lifetime.start.p0(i64 8, ptr %16) #16
  %44 = load ptr, ptr %6, align 8, !tbaa !15
  %45 = load i8, ptr %44, align 1, !tbaa !17
  %46 = sext i8 %45 to i32
  %47 = call noundef ptr @strchr(ptr noundef @_ZN4absl13time_internal4cctz6detail12_GLOBAL__N_17kDigitsE, i32 noundef %46) #17
  store ptr %47, ptr %16, align 8, !tbaa !15
  %48 = load ptr, ptr %16, align 8, !tbaa !15
  %49 = icmp ne ptr %48, null
  br i1 %49, label %51, label %50

50:                                               ; preds = %43
  store i32 3, ptr %17, align 4
  br label %90

51:                                               ; preds = %43
  call void @llvm.lifetime.start.p0(i64 4, ptr %18) #16
  %52 = load ptr, ptr %16, align 8, !tbaa !15
  %53 = ptrtoint ptr %52 to i64
  %54 = sub i64 %53, ptrtoint (ptr @_ZN4absl13time_internal4cctz6detail12_GLOBAL__N_17kDigitsE to i64)
  %55 = trunc i64 %54 to i32
  store i32 %55, ptr %18, align 4, !tbaa !34
  %56 = load i32, ptr %18, align 4, !tbaa !34
  %57 = icmp sge i32 %56, 10
  br i1 %57, label %58, label %59

58:                                               ; preds = %51
  store i32 3, ptr %17, align 4
  br label %87

59:                                               ; preds = %51
  %60 = load i64, ptr %14, align 8, !tbaa !21
  %61 = icmp slt i64 %60, -922337203685477580
  br i1 %61, label %62, label %63

62:                                               ; preds = %59
  store i8 1, ptr %12, align 1, !tbaa !56
  store i32 3, ptr %17, align 4
  br label %87

63:                                               ; preds = %59
  %64 = load i64, ptr %14, align 8, !tbaa !21
  %65 = mul nsw i64 %64, 10
  store i64 %65, ptr %14, align 8, !tbaa !21
  %66 = load i64, ptr %14, align 8, !tbaa !21
  %67 = load i32, ptr %18, align 4, !tbaa !34
  %68 = sext i32 %67 to i64
  %69 = add nsw i64 -9223372036854775808, %68
  %70 = icmp slt i64 %66, %69
  br i1 %70, label %71, label %72

71:                                               ; preds = %63
  store i8 1, ptr %12, align 1, !tbaa !56
  store i32 3, ptr %17, align 4
  br label %87

72:                                               ; preds = %63
  %73 = load i32, ptr %18, align 4, !tbaa !34
  %74 = sext i32 %73 to i64
  %75 = load i64, ptr %14, align 8, !tbaa !21
  %76 = sub nsw i64 %75, %74
  store i64 %76, ptr %14, align 8, !tbaa !21
  %77 = load ptr, ptr %6, align 8, !tbaa !15
  %78 = getelementptr inbounds i8, ptr %77, i64 1
  store ptr %78, ptr %6, align 8, !tbaa !15
  %79 = load i32, ptr %7, align 4, !tbaa !34
  %80 = icmp sgt i32 %79, 0
  br i1 %80, label %81, label %86

81:                                               ; preds = %72
  %82 = load i32, ptr %7, align 4, !tbaa !34
  %83 = add nsw i32 %82, -1
  store i32 %83, ptr %7, align 4, !tbaa !34
  %84 = icmp eq i32 %83, 0
  br i1 %84, label %85, label %86

85:                                               ; preds = %81
  store i32 3, ptr %17, align 4
  br label %87

86:                                               ; preds = %81, %72
  store i32 0, ptr %17, align 4
  br label %87

87:                                               ; preds = %86, %85, %71, %62, %58
  call void @llvm.lifetime.end.p0(i64 4, ptr %18) #16
  %88 = load i32, ptr %17, align 4
  switch i32 %88, label %90 [
    i32 0, label %89
  ]

89:                                               ; preds = %87
  store i32 0, ptr %17, align 4
  br label %90

90:                                               ; preds = %89, %87, %50
  call void @llvm.lifetime.end.p0(i64 8, ptr %16) #16
  %91 = load i32, ptr %17, align 4
  switch i32 %91, label %138 [
    i32 0, label %92
    i32 3, label %93
  ]

92:                                               ; preds = %90
  br label %43, !llvm.loop !89

93:                                               ; preds = %90
  %94 = load ptr, ptr %6, align 8, !tbaa !15
  %95 = load ptr, ptr %15, align 8, !tbaa !15
  %96 = icmp ne ptr %94, %95
  br i1 %96, label %97, label %133

97:                                               ; preds = %93
  %98 = load i8, ptr %12, align 1, !tbaa !56, !range !48, !noundef !49
  %99 = trunc i8 %98 to i1
  br i1 %99, label %133, label %100

100:                                              ; preds = %97
  %101 = load i8, ptr %13, align 1, !tbaa !56, !range !48, !noundef !49
  %102 = trunc i8 %101 to i1
  br i1 %102, label %106, label %103

103:                                              ; preds = %100
  %104 = load i64, ptr %14, align 8, !tbaa !21
  %105 = icmp ne i64 %104, -9223372036854775808
  br i1 %105, label %106, label %133

106:                                              ; preds = %103, %100
  %107 = load i8, ptr %13, align 1, !tbaa !56, !range !48, !noundef !49
  %108 = trunc i8 %107 to i1
  br i1 %108, label %109, label %112

109:                                              ; preds = %106
  %110 = load i64, ptr %14, align 8, !tbaa !21
  %111 = icmp ne i64 %110, 0
  br i1 %111, label %112, label %131

112:                                              ; preds = %109, %106
  %113 = load i8, ptr %13, align 1, !tbaa !56, !range !48, !noundef !49
  %114 = trunc i8 %113 to i1
  br i1 %114, label %118, label %115

115:                                              ; preds = %112
  %116 = load i64, ptr %14, align 8, !tbaa !21
  %117 = sub nsw i64 0, %116
  store i64 %117, ptr %14, align 8, !tbaa !21
  br label %118

118:                                              ; preds = %115, %112
  %119 = load i64, ptr %8, align 8, !tbaa !21
  %120 = load i64, ptr %14, align 8, !tbaa !21
  %121 = icmp sle i64 %119, %120
  br i1 %121, label %122, label %129

122:                                              ; preds = %118
  %123 = load i64, ptr %14, align 8, !tbaa !21
  %124 = load i64, ptr %9, align 8, !tbaa !21
  %125 = icmp sle i64 %123, %124
  br i1 %125, label %126, label %129

126:                                              ; preds = %122
  %127 = load i64, ptr %14, align 8, !tbaa !21
  %128 = load ptr, ptr %10, align 8, !tbaa !87
  store i64 %127, ptr %128, align 8, !tbaa !21
  br label %130

129:                                              ; preds = %122, %118
  store ptr null, ptr %6, align 8, !tbaa !15
  br label %130

130:                                              ; preds = %129, %126
  br label %132

131:                                              ; preds = %109
  store ptr null, ptr %6, align 8, !tbaa !15
  br label %132

132:                                              ; preds = %131, %130
  br label %134

133:                                              ; preds = %103, %97, %93
  store ptr null, ptr %6, align 8, !tbaa !15
  br label %134

134:                                              ; preds = %133, %132
  br label %135

135:                                              ; preds = %134, %38
  call void @llvm.lifetime.end.p0(i64 8, ptr %15) #16
  call void @llvm.lifetime.end.p0(i64 8, ptr %14) #16
  call void @llvm.lifetime.end.p0(i64 1, ptr %13) #16
  call void @llvm.lifetime.end.p0(i64 1, ptr %12) #16
  call void @llvm.lifetime.end.p0(i64 8, ptr %11) #16
  br label %136

136:                                              ; preds = %135, %5
  %137 = load ptr, ptr %6, align 8, !tbaa !15
  ret ptr %137

138:                                              ; preds = %90
  unreachable
}