; Function Attrs: mustprogress nofree nounwind memory(argmem: readwrite) uwtable
define internal fastcc noundef ptr @_ZN4absl13time_internal4cctz6detail12_GLOBAL__N_18ParseIntIlEEPKcS6_iT_S7_PS7_(ptr noundef nonnull readonly captures(address, ret: address, provenance) %0, i32 noundef range(i32 0, 5) %1, i64 noundef %2, i64 noundef %3, ptr noundef nonnull writeonly captures(none) %4) unnamed_addr #4 {
  %6 = load i8, ptr %0, align 1, !tbaa !13
  %7 = icmp eq i8 %6, 45
  br i1 %7, label %8, label %14

8:                                                ; preds = %5
  %9 = icmp eq i32 %1, 0
  br i1 %9, label %12, label %10

10:                                               ; preds = %8
  %11 = add nsw i32 %1, -1
  %.not68 = icmp eq i32 %11, 0
  br i1 %.not68, label %.thread, label %12

12:                                               ; preds = %10, %8
  %.143 = phi i32 [ 0, %8 ], [ %11, %10 ]
  %13 = getelementptr inbounds nuw i8, ptr %0, i64 1
  %.pre = load i8, ptr %13, align 1, !tbaa !13
  br label %14

14:                                               ; preds = %12, %5
  %15 = phi i8 [ %.pre, %12 ], [ %6, %5 ]
  %.042 = phi i32 [ %.143, %12 ], [ %1, %5 ]
  %.1 = phi ptr [ %13, %12 ], [ %0, %5 ]
  %16 = sext i8 %15 to i32
  %memchr93 = tail call ptr @memchr(ptr noundef nonnull dereferenceable(1) @_ZN4absl13time_internal4cctz6detail12_GLOBAL__N_17kDigitsE, i32 %16, i64 11)
  %.not7094 = icmp eq ptr %memchr93, null
  br i1 %.not7094, label %.thread, label %.lr.ph

.lr.ph:                                           ; preds = %14, %34
  %memchr98 = phi ptr [ %memchr, %34 ], [ %memchr93, %14 ]
  %.397 = phi ptr [ %29, %34 ], [ %.1, %14 ]
  %.24496 = phi i32 [ %.345, %34 ], [ %.042, %14 ]
  %.05195 = phi i64 [ %28, %34 ], [ 0, %14 ]
  %17 = ptrtoint ptr %memchr98 to i64
  %18 = trunc i64 %17 to i32
  %19 = sub i32 %18, ptrtoint (ptr @_ZN4absl13time_internal4cctz6detail12_GLOBAL__N_17kDigitsE to i32)
  %20 = icmp sgt i32 %19, 9
  %21 = icmp slt i64 %.05195, -922337203685477580
  %or.cond135 = select i1 %20, i1 true, i1 %21
  br i1 %or.cond135, label %select.unfold, label %22

22:                                               ; preds = %.lr.ph
  %23 = mul nsw i64 %.05195, 10
  %24 = sext i32 %19 to i64
  %25 = or i64 %24, -9223372036854775808
  %26 = icmp slt i64 %23, %25
  br i1 %26, label %select.unfold, label %27

27:                                               ; preds = %22
  %28 = sub nsw i64 %23, %24
  %29 = getelementptr inbounds nuw i8, ptr %.397, i64 1
  %30 = icmp sgt i32 %.24496, 0
  br i1 %30, label %31, label %34

31:                                               ; preds = %27
  %32 = add nsw i32 %.24496, -1
  %33 = icmp eq i32 %32, 0
  br i1 %33, label %select.unfold.thread, label %34

34:                                               ; preds = %31, %27
  %.345 = phi i32 [ 0, %27 ], [ %32, %31 ]
  %35 = load i8, ptr %29, align 1, !tbaa !13
  %36 = sext i8 %35 to i32
  %memchr = tail call ptr @memchr(ptr noundef nonnull dereferenceable(1) @_ZN4absl13time_internal4cctz6detail12_GLOBAL__N_17kDigitsE, i32 %36, i64 11)
  %.not70 = icmp eq ptr %memchr, null
  br i1 %.not70, label %select.unfold.thread, label %.lr.ph

select.unfold:                                    ; preds = %22, %.lr.ph
  %.152.ph = phi i64 [ -9223372036854775800, %22 ], [ %.05195, %.lr.ph ]
  %.not71 = icmp eq ptr %.397, %.1
  br i1 %.not71, label %.thread, label %select.unfold.thread

select.unfold.thread:                             ; preds = %31, %34, %select.unfold
  %.4.ph123 = phi ptr [ %.397, %select.unfold ], [ %29, %34 ], [ %29, %31 ]
  %.not74122 = phi i1 [ %20, %select.unfold ], [ true, %34 ], [ true, %31 ]
  %.152.ph121 = phi i64 [ %.152.ph, %select.unfold ], [ %28, %34 ], [ %28, %31 ]
  %37 = icmp ne i64 %.152.ph121, -9223372036854775808
  %or.cond = select i1 %7, i1 true, i1 %37
  %or.cond75 = select i1 %.not74122, i1 %or.cond, i1 false
  %or.cond75.not = xor i1 %or.cond75, true
  %38 = icmp eq i64 %.152.ph121, 0
  %or.cond3.not = select i1 %7, i1 %38, i1 false
  %or.cond79 = select i1 %or.cond75.not, i1 true, i1 %or.cond3.not
  br i1 %or.cond79, label %.thread, label %39

39:                                               ; preds = %select.unfold.thread
  %40 = sub nsw i64 0, %.152.ph121
  %spec.select = select i1 %7, i64 %.152.ph121, i64 %40
  %.not = icmp sgt i64 %2, %spec.select
  %.not73 = icmp sgt i64 %spec.select, %3
  %or.cond76 = or i1 %.not, %.not73
  br i1 %or.cond76, label %.thread, label %41

41:                                               ; preds = %39
  store i64 %spec.select, ptr %4, align 8, !tbaa !49
  br label %.thread

.thread:                                          ; preds = %14, %10, %41, %39, %select.unfold.thread, %select.unfold
  %.2 = phi ptr [ %.4.ph123, %41 ], [ null, %39 ], [ null, %select.unfold.thread ], [ null, %select.unfold ], [ null, %10 ], [ null, %14 ]
  ret ptr %.2
}